target datalayout = "e-m:e-p270:32:32-p271:32:32-p272:64:64-i64:64-i128:128-f80:128-n8:16:32:64-S128"
target triple = "x86_64-pc-linux-gnu"

; Function Attrs: mustprogress uwtable
define void @_ZN10open_spiel9coin_game9CoinState13DoApplyActionEl(ptr noundef nonnull align 8 dereferenceable(288) %0, i64 noundef %1) unnamed_addr #4 align 2 {
  %3 = alloca ptr, align 8
  %4 = alloca i64, align 8
  store ptr %0, ptr %3, align 8
  store i64 %1, ptr %4, align 8
  %5 = load ptr, ptr %3, align 8
  %6 = call noundef i32 @_ZNK10open_spiel9coin_game9CoinState8GetPhaseEv(ptr noundef nonnull align 8 dereferenceable(288) %5)
  switch i32 %6, label %15 [
    i32 0, label %7
    i32 1, label %9
    i32 2, label %11
    i32 3, label %13
  ]

7:                                                ; preds = %2
  %8 = load i64, ptr %4, align 8
  call void @_ZN10open_spiel9coin_game9CoinState27ApplyAssignPreferenceActionEl(ptr noundef nonnull align 8 dereferenceable(288) %5, i64 noundef %8)
  br label %15

9:                                                ; preds = %2
  %10 = load i64, ptr %4, align 8
  call void @_ZN10open_spiel9coin_game9CoinState24ApplyDeployPlayersActionEl(ptr noundef nonnull align 8 dereferenceable(288) %5, i64 noundef %10)
  br label %15

11:                                               ; preds = %2
  %12 = load i64, ptr %4, align 8
  call void @_ZN10open_spiel9coin_game9CoinState22ApplyDeployCoinsActionEl(ptr noundef nonnull align 8 dereferenceable(288) %5, i64 noundef %12)
  br label %15

13:                                               ; preds = %2
  %14 = load i64, ptr %4, align 8
  call void @_ZN10open_spiel9coin_game9CoinState15ApplyPlayActionEl(ptr noundef nonnull align 8 dereferenceable(288) %5, i64 noundef %14)
  br label %15

15:                                               ; preds = %13, %11, %9, %7, %2
  ret void
}