; Function Attrs: mustprogress uwtable
define void @_ZN10open_spiel9coin_game9CoinState13DoApplyActionEl(ptr noundef nonnull align 8 dereferenceable(288) %0, i64 noundef %1) unnamed_addr #3 align 2 {
  %3 = tail call noundef i32 @_ZNK10open_spiel9coin_game9CoinState8GetPhaseEv(ptr noundef nonnull align 8 dereferenceable(288) %0)
  switch i32 %3, label %default.unreachable4 [
    i32 0, label %4
    i32 1, label %5
    i32 2, label %6
    i32 3, label %7
  ]

4:                                                ; preds = %2
  tail call void @_ZN10open_spiel9coin_game9CoinState27ApplyAssignPreferenceActionEl(ptr noundef nonnull align 8 dereferenceable(288) %0, i64 noundef %1)
  br label %8

5:                                                ; preds = %2
  tail call void @_ZN10open_spiel9coin_game9CoinState24ApplyDeployPlayersActionEl(ptr noundef nonnull align 8 dereferenceable(288) %0, i64 noundef %1)
  br label %8

6:                                                ; preds = %2
  tail call void @_ZN10open_spiel9coin_game9CoinState22ApplyDeployCoinsActionEl(ptr noundef nonnull align 8 dereferenceable(288) %0, i64 noundef %1)
  br label %8

7:                                                ; preds = %2
  tail call void @_ZN10open_spiel9coin_game9CoinState15ApplyPlayActionEl(ptr noundef nonnull align 8 dereferenceable(288) %0, i64 noundef %1)
  br label %8

default.unreachable4:                             ; preds = %2
  unreachable

8:                                                ; preds = %7, %6, %5, %4
  ret void
}